c__builtin__
set
p0
((lp1
(((F-7.07106781
F-7.07106781
tp2
(F-3.82683432
F-9.23879533
tp3
tp4
(F0.4801251474282305
cnumpy.core.multiarray
scalar
p5
(cnumpy
dtype
p6
(S'f8'
p7
I0
I1
tp8
Rp9
(I3
S'<'
p10
NNNI-1
I-1
I0
tp11
bS'\xd4i\xd7\x83$\xd3\t@'
p12
tp13
Rp14
g5
(g9
S'\xe05\xa1\x9c\x07\x13\x14@'
p15
tp16
Rp17
(F-4.58041573
F-6.85507658
tp18
F2.500000003355
tp19
tp20
a(((F-10.0
F0.0
tp21
(F-9.23879533
F-3.82683432
tp22
tp23
(F0.4801251474282303
g5
(g9
S'u\xbd\xe5\xae\xa5\x8a\x03@'
p24
tp25
Rp26
g5
(g9
S'\x1f$\xf01\xc8\xee\x10@'
p27
tp28
Rp29
(F-8.08611416
F-1.60842811
tp30
F2.499999997095
tp31
tp32
a(((F-3.82683432
F9.23879533
tp33
(F-7.07106781
F7.07106781
tp34
tp35
(F-0.4801251474282306
g5
(g9
S'\xb9\x8ez\xbcf\xc9\x18@'
p36
tp37
Rp38
g5
(g9
S'\xc4\r\xc5a\xf1\x9f\x11@'
p39
tp40
Rp41
(F-6.3174864
F9.45478656
tp42
F2.500000003355
tp43
tp44
a(((F-9.23879533
F3.82683432
tp45
(F-10.0
F0.0
tp46
tp47
(F-0.4801251474282302
g5
(g9
S'\x8a\xbey\x95V]\xe6?'
p48
tp49
Rp50
g5
(g9
S'\x84\x1fv\xcc0\xc4\x14@'
p51
tp52
Rp53
(F-11.15268117
F2.21840621
tp54
F2.499999997095
tp55
tp56
a(((F3.82683432
F-9.23879533
tp57
(F7.07106781
F-7.07106781
tp58
tp59
(F-0.4801251474282303
g5
(g9
S'Z\xf0\xb0$\xd2p\x08@'
p60
tp61
Rp62
g5
(g9
S'\xe2\xdc\x8b\xde\xce;\xf4?'
p63
tp64
Rp65
(F6.3174864
F-9.45478656
tp66
F2.500000003355
tp67
tp68
a(((F9.23879533
F-3.82683432
tp69
(F10.0
F0.0
tp70
tp71
(F-0.4801251474282308
g5
(g9
S'\xbb\x9c\xa2\xf9P\xb9\x0e@'
p72
tp73
Rp74
g5
(g9
S'\xef\x11\xa8Dff\x00@'
p75
tp76
Rp77
(F11.15268117
F-2.21840621
tp78
F2.499999997095
tp79
tp80
a(((F0.0
F0.0
tp81
(F10.0
F0.0
tp82
tp83
(ttp84
a(((F0.0
F10.0
tp85
(F-3.82683432
F9.23879533
tp86
tp87
(F0.4801251474282303
g5
(g9
S'\xaa\x9b\x0e\x13\xa0\xe6\xeb?'
p88
tp89
Rp90
g5
(g9
S'\xb31\xbe\xb9\x92L\x05@'
p91
tp92
Rp93
(F-1.60842811
F8.08611416
tp94
F2.499999997095
tp95
tp96
a(((F7.07106781
F7.07106781
tp97
(F9.23879533
F3.82683432
tp98
tp99
(F0.4801251474282302
g5
(g9
S'\xfc\x04h\x19\xe5\xae\x06@'
p100
tp101
Rp102
g5
(g9
S'r\x83i\xe7\xe7\x80\x12@'
p103
tp104
Rp105
(F9.45478656
F6.3174864
tp106
F2.500000003355
tp107
tp108
a(((F-3.82683432
F-9.23879533
tp109
(F0.0
F-10.0
tp110
tp111
(F-0.4801251474282302
g5
(g9
S'/\x86\x80OS(\x02@'
p112
tp113
Rp114
g5
(g9
S'&\xdb/\xd4D\xab\xde?'
p115
tp116
Rp117
(F-2.21840621
F-11.15268117
tp118
F2.499999997095
tp119
tp120
a(((F0.0
F-10.0
tp121
(F3.82683432
F-9.23879533
tp122
tp123
(F0.4801251474282305
g5
(g9
S'\x00\xea\x83\xac\xd1\r\x10@'
p124
tp125
Rp126
g5
(g9
S'f/\x01\x07G7\x17@'
p127
tp128
Rp129
(F1.60842811
F-8.08611416
tp130
F2.499999997095
tp131
tp132
a(((F7.07106781
F-7.07106781
tp133
(F9.23879533
F-3.82683432
tp134
tp135
(F0.4801251474282303
g5
(g9
S'0\xc0\xfc\x16\x112\x13@'
p136
tp137
Rp138
g5
(g9
S'\xde@\xe1\xd6\xb1\x98\xd3?'
p139
tp140
Rp141
(F6.85507658
F-4.58041573
tp142
F2.500000003355
tp143
tp144
a(((F-7.07106781
F7.07106781
tp145
(F-9.23879533
F3.82683432
tp146
tp147
(F0.4801251474282303
g5
(g9
S'\x91\xa6j\xb3M\x84\xfa?'
p148
tp149
Rp150
g5
(g9
S'4U \x8f\x11\x95\x0b@'
p151
tp152
Rp153
(F-6.85507658
F4.58041573
tp154
F2.500000003355
tp155
tp156
a(((F-9.23879533
F-3.82683432
tp157
(F-7.07106781
F-7.07106781
tp158
tp159
(F-0.4801251474282302
g5
(g9
S'\x9a\xb3\x1d\xf5\xa8\xbf\xf7?'
p160
tp161
Rp162
g5
(g9
S'\n\x19\xd66p\xe8\x17@'
p163
tp164
Rp165
(F-9.45478656
F-6.3174864
tp166
F2.500000003355
tp167
tp168
a(((F7.07106781
F7.07106781
tp169
(F3.82683432
F9.23879533
tp170
tp171
(F0.4801251474282303
g5
(g9
S'\xbe\x97g\xf2%%\xb6?'
p172
tp173
Rp174
g5
(g9
S"R}\xfc\xc9'\x08\xfe?"
p175
tp176
Rp177
(F4.58041573
F6.85507658
tp178
F2.500000003355
tp179
tp180
a(((F3.82683432
F9.23879533
tp181
(F0.0
F10.0
tp182
tp183
(F-0.4801251474282302
g5
(g9
S"\xa4Y\xe2Q'\xa5\x15@"
p184
tp185
Rp186
g5
(g9
S'{(\xca\xeec\xf7\x0c@'
p187
tp188
Rp189
(F2.21840621
F11.15268117
tp190
F2.499999997095
tp191
tp192
a(((F9.23879533
F3.82683432
tp193
(F10.0
F0.0
tp194
tp195
(F-0.4801251474282303
g5
(g9
S'L68\x1f*w\xf1?'
p196
tp197
Rp198
g5
(g9
S'G\xf5\x94\x81PV\x16@'
p199
tp200
Rp201
(F8.08611416
F1.60842811
tp202
F2.499999997095
tp203
tp204
atp205
Rp206
.