c__builtin__
set
p0
((lp1
(((F-67.29360381
F13.32616754
tp2
(F-67.29360381
F-3.87647229
tp3
tp4
(ttp5
a(((F-35.7273385
F-3.87647229
tp6
(F-35.7273385
F13.32616754
tp7
tp8
(ttp9
a(((F72.48756767
F0.0
tp10
(F56.76510677
F0.0
tp11
tp12
(cnumpy.core.multiarray
scalar
p13
(cnumpy
dtype
p14
(S'f8'
p15
I0
I1
tp16
Rp17
(I3
S'<'
p18
NNNI-1
I-1
I0
tp19
bS'\xc25mLaw\x00@'
p20
tp21
Rp22
g13
(g17
S'\xe0\x1cW\xa4\xb4w\x16@'
p23
tp24
Rp25
g13
(g17
S'\x8aM\x1e\xb4\x88v\x0e@'
p26
tp27
Rp28
(F64.62633722
F6.18070027
tp29
F10.0
tp30
tp31
a(((F50.0
F20.0
tp32
(F40.0
F20.0
tp33
tp34
(ttp35
a(((F20.95854812
F-7.0
tp36
(F16.91709623
F0.0
tp37
tp38
(ttp39
a(((F29.04145188
F7.0
tp40
(F33.08290377
F0.0
tp41
tp42
(ttp43
a(((F-21.0
F10.0
tp44
(F-21.0
F0.0
tp45
tp46
(ttp47
a(((F-35.7273385
F13.32616754
tp48
(F-67.29360381
F13.32616754
tp49
tp50
(ttp51
a(((F-67.29360381
F-3.87647229
tp52
(F-56.44630618
F-3.87647229
tp53
tp54
(ttp55
a(((F40.0
F0.0
tp56
(F50.0
F0.0
tp57
tp58
(F-0.9999999999999998
g13
(g17
S'\x18-DT\xfb!\t@'
p59
tp60
Rp61
F0.0
(F45.0
F0.0
tp62
F5.0
tp63
tp64
a(((F15.0
F0.0
tp65
(F0.0
F0.0
tp66
tp67
(g13
(g17
S'133333\xe3?'
p68
tp69
Rp70
g13
(g17
S'\xde\x80,\xf9u[\xdf?'
p71
tp72
Rp73
g13
(g17
S'\xfb\x9c\x1e\x95\x8c6\x05@'
p74
tp75
Rp76
(F7.5
F-4.0
tp77
F8.5
tp78
tp79
a(((F40.0
F20.0
tp80
(F40.0
F0.0
tp81
tp82
(ttp83
a(((F29.04145188
F-7.0
tp84
(F20.95854812
F-7.0
tp85
tp86
(ttp87
a(((F50.0
F0.0
tp88
(F50.0
F20.0
tp89
tp90
(ttp91
a(((F-47.36042519
F-3.87647229
tp92
(F-35.7273385
F-3.87647229
tp93
tp94
(ttp95
a(((F33.08290377
F0.0
tp96
(F29.04145188
F-7.0
tp97
tp98
(ttp99
a(((F20.95854812
F7.0
tp100
(F29.04145188
F7.0
tp101
tp102
(ttp103
a(((F16.91709623
F0.0
tp104
(F20.95854812
F7.0
tp105
tp106
(ttp107
atp108
Rp109
.