((lp0
(F-12.5
F18.5
tp1
a(F-2.5
F6.03589838
tp2
a(F-2.5
F18.5
tp3
a(F-12.5
F0.5
tp4
a(F-2.5
F0.5
tp5
a(F-2.5
F12.96410162
tp6
a(lp7
(I4
I1
tp8
a(I5
I2
tp9
a(I3
I4
tp10
a(I2
I0
tp11
a(I1
I5
tp12
a(I0
I3
tp13
a(lp14
(I4
(F-1.732050807568874
cnumpy.core.multiarray
scalar
p15
(cnumpy
dtype
p16
(S'f8'
p17
I0
I1
tp18
Rp19
(I3
S'<'
p20
NNNI-1
I-1
I0
tp21
bS'3_.\xc6\xa6\xf1\x14@'
p22
tp23
Rp24
g15
(g19
S'\x947W8R\xc1\xf0?'
p25
tp26
Rp27
(F-4.5
F9.5
tp28
F4.000000005614
tp29
tp30
atp31
.