c__builtin__
set
p0
((lp1
(((F-15.0
F2.0
tp2
(F-3.0
F2.0
tp3
tp4
(ttp5
a(((F-3.0
F2.0
tp6
(F-3.0
F12.0
tp7
tp8
(F-0.5366750419289198
cnumpy.core.multiarray
scalar
p9
(cnumpy
dtype
p10
(S'f8'
p11
I0
I1
tp12
Rp13
(I3
S'<'
p14
NNNI-1
I-1
I0
tp15
bS'#m\xb8\x8b\xbe\x81\x10@'
p16
tp17
Rp18
g9
(g13
S'\xea\x7f\x17\x91y@\x01@'
p19
tp20
Rp21
(F0.31662479
F7.0
tp22
F6.0
tp23
tp24
a(((F-3.0
F12.0
tp25
(F-15.0
F12.0
tp26
tp27
(ttp28
a(((F-15.0
F12.0
tp29
(F-15.0
F2.0
tp30
tp31
(ttp32
atp33
Rp34
.