c__builtin__
set
p0
((lp1
(((F15.0
F0.0
tp2
(F0.0
F0.0
tp3
tp4
(cnumpy.core.multiarray
scalar
p5
(cnumpy
dtype
p6
(S'f8'
p7
I0
I1
tp8
Rp9
(I3
S'<'
p10
NNNI-1
I-1
I0
tp11
bS'133333\xe3?'
p12
tp13
Rp14
g5
(g9
S'\xde\x80,\xf9u[\xdf?'
p15
tp16
Rp17
g5
(g9
S'\xfb\x9c\x1e\x95\x8c6\x05@'
p18
tp19
Rp20
(F7.5
F-4.0
tp21
F8.5
tp22
tp23
a(((F-67.29360381
F13.32616754
tp24
(F-67.29360381
F-3.87647229
tp25
tp26
(ttp27
a(((F40.0
F20.0
tp28
(F40.0
F0.0
tp29
tp30
(ttp31
a(((F72.48756767
F0.0
tp32
(F56.76510678
F0.0
tp33
tp34
(g5
(g9
S'\xc25mLaw\x00@'
p35
tp36
Rp37
g5
(g9
S'\xe0\x1cW\xa4\xb4w\x16@'
p38
tp39
Rp40
g5
(g9
S'\x8aM\x1e\xb4\x88v\x0e@'
p41
tp42
Rp43
(F64.62633722025834
F6.18070027495145
tp44
F10.0
tp45
tp46
a(((F29.04145188
F-7.0
tp47
(F20.95854812
F-7.0
tp48
tp49
(ttp50
a(((F50.0
F0.0
tp51
(F50.0
F20.0
tp52
tp53
(ttp54
a(((F-35.7273385
F-3.87647229
tp55
(F-35.7273385
F13.32616754
tp56
tp57
(ttp58
a(((F29.04145188
F7.0
tp59
(F33.08290377
F0.0
tp60
tp61
(ttp62
a(((F-47.36042519
F-3.87647229
tp63
(F-35.7273385
F-3.87647229
tp64
tp65
(ttp66
a(((F50.0
F20.0
tp67
(F40.0
F20.0
tp68
tp69
(ttp70
a(((F20.95854812
F-7.0
tp71
(F16.91709623
F0.0
tp72
tp73
(ttp74
a(((F33.08290377
F0.0
tp75
(F29.04145188
F-7.0
tp76
tp77
(ttp78
a(((F-21.0
F10.0
tp79
(F-21.0
F0.0
tp80
tp81
(ttp82
a(((F-35.7273385
F13.32616754
tp83
(F-67.29360381
F13.32616754
tp84
tp85
(ttp86
a(((F20.95854812
F7.0
tp87
(F29.04145188
F7.0
tp88
tp89
(ttp90
a(((F16.91709623
F0.0
tp91
(F20.95854812
F7.0
tp92
tp93
(ttp94
a(((F-67.29360381
F-3.87647229
tp95
(F-56.44630618
F-3.87647229
tp96
tp97
(ttp98
a(((F40.0
F0.0
tp99
(F50.0
F0.0
tp100
tp101
(F-0.9999999999999998
g5
(g9
S'\x18-DT\xfb!\t@'
p102
tp103
Rp104
g5
(g9
S'\x00\x00\x00\x00\x00\x00\xb0<'
p105
tp106
Rp107
(g5
(g9
S'\x00\x00\x00\x00\x00\x80F@'
p108
tp109
Rp110
g5
(g9
S'\x00\x00\x00\x00\x00\x00\xd4\xbc'
p111
tp112
Rp113
tp114
g5
(g9
S'\x00\x00\x00\x00\x00\x00\x14@'
p115
tp116
Rp117
tp118
tp119
atp120
Rp121
.